; Function Attrs: mustprogress uwtable
define void @_ZN5Ipopt13ZeroSymMatrixC2EPKNS_14SymMatrixSpaceE(ptr noundef nonnull align 8 dereferenceable(80) %0, ptr noundef %1) unnamed_addr #0 align 2 personality ptr @__gxx_personality_v0 {
  %3 = getelementptr inbounds i8, ptr %0, i64 8
  store i32 0, ptr %3, align 8
  %4 = getelementptr inbounds i8, ptr %0, i64 16
  %5 = getelementptr inbounds i8, ptr %0, i64 24
  tail call void @llvm.memset.p0.i64(ptr noundef nonnull align 8 dereferenceable(24) %5, i8 0, i64 24, i1 false)
  store ptr getelementptr inbounds ({ [4 x ptr], [4 x ptr] }, ptr @_ZTVN5Ipopt12TaggedObjectE, i64 0, i32 0, i64 2), ptr %0, align 8
  store ptr getelementptr inbounds ({ [4 x ptr], [4 x ptr] }, ptr @_ZTVN5Ipopt12TaggedObjectE, i64 0, i32 1, i64 2), ptr %4, align 8
  invoke void @_ZN5Ipopt12TaggedObject13ObjectChangedEv(ptr noundef nonnull align 8 dereferenceable(56) %0)
          to label %_ZN5Ipopt12TaggedObjectC2Ev.exit.i.i unwind label %6

6:                                                ; preds = %2
  %7 = landingpad { ptr, i32 }
          cleanup
  tail call void @_ZN5Ipopt7SubjectD2Ev(ptr noundef nonnull align 8 dereferenceable(32) %4) #9
  store ptr getelementptr inbounds ({ [4 x ptr] }, ptr @_ZTVN5Ipopt16ReferencedObjectE, i64 0, i32 0, i64 2), ptr %0, align 8
  resume { ptr, i32 } %7

_ZN5Ipopt12TaggedObjectC2Ev.exit.i.i:             ; preds = %2
  store ptr getelementptr inbounds ({ [14 x ptr], [4 x ptr] }, ptr @_ZTVN5Ipopt6MatrixE, i64 0, i32 0, i64 2), ptr %0, align 8
  store ptr getelementptr inbounds ({ [14 x ptr], [4 x ptr] }, ptr @_ZTVN5Ipopt6MatrixE, i64 0, i32 1, i64 2), ptr %4, align 8
  %8 = getelementptr inbounds i8, ptr %0, i64 56
  store ptr null, ptr %8, align 8
  %.not.i.i.i.i = icmp eq ptr %1, null
  br i1 %.not.i.i.i.i, label %_ZN5Ipopt9SymMatrixC2EPKNS_14SymMatrixSpaceE.exit, label %9

9:                                                ; preds = %_ZN5Ipopt12TaggedObjectC2Ev.exit.i.i
  %10 = getelementptr inbounds i8, ptr %1, i64 8
  %11 = load i32, ptr %10, align 8
  %12 = add nsw i32 %11, 1
  store i32 %12, ptr %10, align 8
  %.pr.i.i.i = load ptr, ptr %8, align 8
  %.not.i.i.i.i.i = icmp eq ptr %.pr.i.i.i, null
  br i1 %.not.i.i.i.i.i, label %_ZN5Ipopt9SymMatrixC2EPKNS_14SymMatrixSpaceE.exit, label %13

13:                                               ; preds = %9
  %14 = getelementptr inbounds i8, ptr %.pr.i.i.i, i64 8
  %15 = load i32, ptr %14, align 8
  %16 = add nsw i32 %15, -1
  store i32 %16, ptr %14, align 8
  %17 = load ptr, ptr %8, align 8
  %18 = getelementptr inbounds i8, ptr %17, i64 8
  %19 = load i32, ptr %18, align 8
  %20 = icmp eq i32 %19, 0
  br i1 %20, label %21, label %_ZN5Ipopt9SymMatrixC2EPKNS_14SymMatrixSpaceE.exit

21:                                               ; preds = %13
  %22 = load ptr, ptr %17, align 8
  %23 = getelementptr inbounds i8, ptr %22, i64 8
  %24 = load ptr, ptr %23, align 8
  tail call void %24(ptr noundef nonnull align 8 dereferenceable(20) %17) #9
  br label %_ZN5Ipopt9SymMatrixC2EPKNS_14SymMatrixSpaceE.exit

_ZN5Ipopt9SymMatrixC2EPKNS_14SymMatrixSpaceE.exit: ; preds = %_ZN5Ipopt12TaggedObjectC2Ev.exit.i.i, %9, %13, %21
  store ptr %1, ptr %8, align 8
  %25 = getelementptr inbounds i8, ptr %0, i64 64
  store i32 0, ptr %25, align 8
  %26 = getelementptr inbounds i8, ptr %0, i64 72
  store ptr %1, ptr %26, align 8
  store ptr getelementptr inbounds ({ [14 x ptr], [4 x ptr] }, ptr @_ZTVN5Ipopt13ZeroSymMatrixE, i64 0, i32 0, i64 2), ptr %0, align 8
  store ptr getelementptr inbounds ({ [14 x ptr], [4 x ptr] }, ptr @_ZTVN5Ipopt13ZeroSymMatrixE, i64 0, i32 1, i64 2), ptr %4, align 8
  ret void
}